target datalayout = "e-m:e-p270:32:32-p271:32:32-p272:64:64-i64:64-i128:128-f80:128-n8:16:32:64-S128"
target triple = "x86_64-pc-linux-gnu"

%struct.JNINativeInterface_ = type { ptr, ptr, ptr, ptr, ptr, ptr, ptr, ptr, ptr, ptr, ptr, ptr, ptr, ptr, ptr, ptr, ptr, ptr, ptr, ptr, ptr, ptr, ptr, ptr, ptr, ptr, ptr, ptr, ptr, ptr, ptr, ptr, ptr, ptr, ptr, ptr, ptr, ptr, ptr, ptr, ptr, ptr, ptr, ptr, ptr, ptr, ptr, ptr, ptr, ptr, ptr, ptr, ptr, ptr, ptr, ptr, ptr, ptr, ptr, ptr, ptr, ptr, ptr, ptr, ptr, ptr, ptr, ptr, ptr, ptr, ptr, ptr, ptr, ptr, ptr, ptr, ptr, ptr, ptr, ptr, ptr, ptr, ptr, ptr, ptr, ptr, ptr, ptr, ptr, ptr, ptr, ptr, ptr, ptr, ptr, ptr, ptr, ptr, ptr, ptr, ptr, ptr, ptr, ptr, ptr, ptr, ptr, ptr, ptr, ptr, ptr, ptr, ptr, ptr, ptr, ptr, ptr, ptr, ptr, ptr, ptr, ptr, ptr, ptr, ptr, ptr, ptr, ptr, ptr, ptr, ptr, ptr, ptr, ptr, ptr, ptr, ptr, ptr, ptr, ptr, ptr, ptr, ptr, ptr, ptr, ptr, ptr, ptr, ptr, ptr, ptr, ptr, ptr, ptr, ptr, ptr, ptr, ptr, ptr, ptr, ptr, ptr, ptr, ptr, ptr, ptr, ptr, ptr, ptr, ptr, ptr, ptr, ptr, ptr, ptr, ptr, ptr, ptr, ptr, ptr, ptr, ptr, ptr, ptr, ptr, ptr, ptr, ptr, ptr, ptr, ptr, ptr, ptr, ptr, ptr, ptr, ptr, ptr, ptr, ptr, ptr, ptr, ptr, ptr, ptr, ptr, ptr, ptr, ptr, ptr, ptr, ptr, ptr, ptr, ptr, ptr, ptr, ptr, ptr, ptr, ptr, ptr, ptr, ptr, ptr, ptr, ptr, ptr, ptr, ptr, ptr, ptr, ptr, ptr, ptr }
%union.jvalue = type { i64 }

@.str.186 = private unnamed_addr constant [7 x i8] c"<init>\00", align 1
@create_Double.cid = internal global ptr null, align 8
@.str.197 = private unnamed_addr constant [17 x i8] c"java/lang/Double\00", align 1
@.str.198 = private unnamed_addr constant [5 x i8] c"(D)V\00", align 1

; Function Attrs: nounwind uwtable
define internal ptr @create_Object(ptr noundef %0, ptr noundef %1, ptr noundef %2, ptr noundef %3, ptr noundef %4) #0 {
  %6 = alloca ptr, align 8
  %7 = alloca ptr, align 8
  %8 = alloca ptr, align 8
  %9 = alloca ptr, align 8
  %10 = alloca ptr, align 8
  %11 = alloca ptr, align 8
  %12 = alloca ptr, align 8
  %13 = alloca ptr, align 8
  store ptr %0, ptr %7, align 8
  store ptr %1, ptr %8, align 8
  store ptr %2, ptr %9, align 8
  store ptr %3, ptr %10, align 8
  store ptr %4, ptr %11, align 8
  %14 = load ptr, ptr %7, align 8
  %15 = load ptr, ptr %14, align 8
  %16 = getelementptr inbounds %struct.JNINativeInterface_, ptr %15, i32 0, i32 6
  %17 = load ptr, ptr %16, align 8
  %18 = load ptr, ptr %7, align 8
  %19 = load ptr, ptr %9, align 8
  %20 = call ptr %17(ptr noundef %18, ptr noundef %19)
  store ptr %20, ptr %12, align 8
  %21 = load ptr, ptr %12, align 8
  %22 = icmp eq ptr %21, null
  br i1 %22, label %23, label %24

23:                                               ; preds = %5
  store ptr null, ptr %6, align 8
  br label %67

24:                                               ; preds = %5
  %25 = load ptr, ptr %8, align 8
  %26 = load ptr, ptr %25, align 8
  %27 = icmp eq ptr %26, null
  br i1 %27, label %28, label %49

28:                                               ; preds = %24
  %29 = load ptr, ptr %7, align 8
  %30 = load ptr, ptr %29, align 8
  %31 = getelementptr inbounds %struct.JNINativeInterface_, ptr %30, i32 0, i32 33
  %32 = load ptr, ptr %31, align 8
  %33 = load ptr, ptr %7, align 8
  %34 = load ptr, ptr %12, align 8
  %35 = load ptr, ptr %10, align 8
  %36 = call ptr %32(ptr noundef %33, ptr noundef %34, ptr noundef @.str.186, ptr noundef %35)
  %37 = load ptr, ptr %8, align 8
  store ptr %36, ptr %37, align 8
  %38 = load ptr, ptr %8, align 8
  %39 = load ptr, ptr %38, align 8
  %40 = icmp eq ptr %39, null
  br i1 %40, label %41, label %48

41:                                               ; preds = %28
  %42 = load ptr, ptr %7, align 8
  %43 = load ptr, ptr %42, align 8
  %44 = getelementptr inbounds %struct.JNINativeInterface_, ptr %43, i32 0, i32 23
  %45 = load ptr, ptr %44, align 8
  %46 = load ptr, ptr %7, align 8
  %47 = load ptr, ptr %12, align 8
  call void %45(ptr noundef %46, ptr noundef %47)
  store ptr null, ptr %6, align 8
  br label %67

48:                                               ; preds = %28
  br label %49

49:                                               ; preds = %48, %24
  %50 = load ptr, ptr %7, align 8
  %51 = load ptr, ptr %50, align 8
  %52 = getelementptr inbounds %struct.JNINativeInterface_, ptr %51, i32 0, i32 30
  %53 = load ptr, ptr %52, align 8
  %54 = load ptr, ptr %7, align 8
  %55 = load ptr, ptr %12, align 8
  %56 = load ptr, ptr %8, align 8
  %57 = load ptr, ptr %56, align 8
  %58 = load ptr, ptr %11, align 8
  %59 = call ptr %53(ptr noundef %54, ptr noundef %55, ptr noundef %57, ptr noundef %58)
  store ptr %59, ptr %13, align 8
  %60 = load ptr, ptr %7, align 8
  %61 = load ptr, ptr %60, align 8
  %62 = getelementptr inbounds %struct.JNINativeInterface_, ptr %61, i32 0, i32 23
  %63 = load ptr, ptr %62, align 8
  %64 = load ptr, ptr %7, align 8
  %65 = load ptr, ptr %12, align 8
  call void %63(ptr noundef %64, ptr noundef %65)
  %66 = load ptr, ptr %13, align 8
  store ptr %66, ptr %6, align 8
  br label %67

67:                                               ; preds = %49, %41, %23
  %68 = load ptr, ptr %6, align 8
  ret ptr %68
}

; Function Attrs: nounwind uwtable
define internal ptr @create_Double(ptr noundef %0, double noundef %1) #0 {
  %3 = alloca ptr, align 8
  %4 = alloca double, align 8
  %5 = alloca %union.jvalue, align 8
  store ptr %0, ptr %3, align 8
  store double %1, ptr %4, align 8
  %6 = load double, ptr %4, align 8
  store double %6, ptr %5, align 8
  %7 = load ptr, ptr %3, align 8
  %8 = call ptr @create_Object(ptr noundef %7, ptr noundef @create_Double.cid, ptr noundef @.str.197, ptr noundef @.str.198, ptr noundef %5)
  ret ptr %8
}